; Function Attrs: nounwind uwtable
define range(i32 -1, 1) i32 @H5Pget_est_link_info(i64 noundef %0, ptr noundef writeonly captures(address_is_null) %1, ptr noundef writeonly captures(address_is_null) %2) local_unnamed_addr #0 {
  %4 = alloca %struct.H5CX_node_t, align 8
  %5 = alloca %struct.H5O_ginfo_t, align 4
  call void @llvm.lifetime.start.p0(i64 480, ptr nonnull %4) #7
  call void @llvm.memset.p0.i64(ptr noundef nonnull align 8 dereferenceable(480) %4, i8 0, i64 480, i1 false)
  %6 = load i8, ptr @H5_libinit_g, align 1, !tbaa !3, !range !7, !noundef !8
  %7 = trunc nuw i8 %6 to i1
  %8 = load i8, ptr @H5_libterm_g, align 1, !range !7
  %9 = trunc nuw i8 %8 to i1
  %10 = select i1 %7, i1 true, i1 %9
  br i1 %10, label %18, label %11, !prof !9

11:                                               ; preds = %3
  %12 = tail call i32 @H5_init_library() #7
  %13 = icmp slt i32 %12, 0
  br i1 %13, label %14, label %._crit_edge, !prof !12

._crit_edge:                                      ; preds = %11
  %.pre = load i8, ptr @H5_libterm_g, align 1, !range !7
  br label %18

14:                                               ; preds = %11
  %15 = load i64, ptr @H5E_FUNC_g, align 8, !tbaa !10
  %16 = load i64, ptr @H5E_CANTINIT_g, align 8, !tbaa !10
  %17 = tail call i32 (ptr, ptr, i32, i64, i64, ptr, ...) @H5E_printf_stack(ptr noundef nonnull @.str.1, ptr noundef nonnull @__func__.H5Pget_est_link_info, i32 noundef 376, i64 noundef %15, i64 noundef %16, ptr noundef nonnull @.str.2) #7
  br label %.thread31

18:                                               ; preds = %._crit_edge, %3
  %19 = phi i8 [ %.pre, %._crit_edge ], [ %8, %3 ]
  %20 = load i8, ptr @H5P_init_g, align 1, !tbaa !3, !range !7, !noundef !8
  %21 = trunc nuw i8 %20 to i1
  %22 = trunc nuw i8 %19 to i1
  %23 = select i1 %21, i1 true, i1 %22
  br i1 %23, label %31, label %24, !prof !9

24:                                               ; preds = %18
  store i8 1, ptr @H5P_init_g, align 1, !tbaa !3
  %25 = tail call i32 @H5P__init_package() #7
  %26 = icmp slt i32 %25, 0
  br i1 %26, label %27, label %31, !prof !13

27:                                               ; preds = %24
  store i8 0, ptr @H5P_init_g, align 1, !tbaa !3
  %28 = load i64, ptr @H5E_FUNC_g, align 8, !tbaa !10
  %29 = load i64, ptr @H5E_CANTINIT_g, align 8, !tbaa !10
  %30 = tail call i32 (ptr, ptr, i32, i64, i64, ptr, ...) @H5E_printf_stack(ptr noundef nonnull @.str.1, ptr noundef nonnull @__func__.H5Pget_est_link_info, i32 noundef 376, i64 noundef %28, i64 noundef %29, ptr noundef nonnull @.str.3) #7
  br label %.thread31

31:                                               ; preds = %18, %24
  %32 = call i32 @H5CX_push(ptr noundef nonnull %4) #7
  %33 = icmp slt i32 %32, 0
  br i1 %33, label %34, label %38, !prof !12

34:                                               ; preds = %31
  %35 = load i64, ptr @H5E_FUNC_g, align 8, !tbaa !10
  %36 = load i64, ptr @H5E_CANTSET_g, align 8, !tbaa !10
  %37 = call i32 (ptr, ptr, i32, i64, i64, ptr, ...) @H5E_printf_stack(ptr noundef nonnull @.str.1, ptr noundef nonnull @__func__.H5Pget_est_link_info, i32 noundef 376, i64 noundef %35, i64 noundef %36, ptr noundef nonnull @.str.4) #7
  br label %.thread31

38:                                               ; preds = %31
  %39 = call i32 @H5E_clear_stack() #7
  %40 = icmp ne ptr %1, null
  %41 = icmp ne ptr %2, null
  %or.cond = or i1 %40, %41
  br i1 %or.cond, label %43, label %.thread35

.thread35:                                        ; preds = %38
  %42 = call i32 @H5CX_pop(i1 noundef zeroext true) #7
  br label %72

43:                                               ; preds = %38
  call void @llvm.lifetime.start.p0(i64 16, ptr nonnull %5) #7
  %44 = load i64, ptr @H5P_CLS_GROUP_CREATE_ID_g, align 8, !tbaa !10
  %45 = call ptr @H5P_object_verify(i64 noundef %0, i64 noundef %44, i1 noundef zeroext true) #7
  %46 = icmp eq ptr %45, null
  br i1 %46, label %47, label %51

47:                                               ; preds = %43
  %48 = load i64, ptr @H5E_ID_g, align 8, !tbaa !10
  %49 = load i64, ptr @H5E_BADID_g, align 8, !tbaa !10
  %50 = call i32 (ptr, ptr, i32, i64, i64, ptr, ...) @H5E_printf_stack(ptr noundef nonnull @.str.1, ptr noundef nonnull @__func__.H5Pget_est_link_info, i32 noundef 385, i64 noundef %48, i64 noundef %49, ptr noundef nonnull @.str.5) #7
  br label %.thread39

51:                                               ; preds = %43
  %52 = call i32 @H5P_get(ptr noundef nonnull %45, ptr noundef nonnull @.str.6, ptr noundef nonnull %5) #7
  %53 = icmp slt i32 %52, 0
  br i1 %53, label %54, label %58

54:                                               ; preds = %51
  %55 = load i64, ptr @H5E_PLIST_g, align 8, !tbaa !10
  %56 = load i64, ptr @H5E_CANTGET_g, align 8, !tbaa !10
  %57 = call i32 (ptr, ptr, i32, i64, i64, ptr, ...) @H5E_printf_stack(ptr noundef nonnull @.str.1, ptr noundef nonnull @__func__.H5Pget_est_link_info, i32 noundef 389, i64 noundef %55, i64 noundef %56, ptr noundef nonnull @.str.7) #7
  br label %.thread39

58:                                               ; preds = %51
  br i1 %40, label %59, label %63

59:                                               ; preds = %58
  %60 = getelementptr inbounds nuw i8, ptr %5, i64 12
  %61 = load i16, ptr %60, align 4, !tbaa !24
  %62 = zext i16 %61 to i32
  store i32 %62, ptr %1, align 4, !tbaa !22
  br label %63

63:                                               ; preds = %59, %58
  br i1 %41, label %64, label %69

64:                                               ; preds = %63
  %65 = getelementptr inbounds nuw i8, ptr %5, i64 14
  %66 = load i16, ptr %65, align 2, !tbaa !25
  %67 = zext i16 %66 to i32
  store i32 %67, ptr %2, align 4, !tbaa !22
  br label %69

.thread39:                                        ; preds = %47, %54
  call void @llvm.lifetime.end.p0(i64 16, ptr nonnull %5) #7
  %68 = call i32 @H5CX_pop(i1 noundef zeroext true) #7
  br label %.thread31

69:                                               ; preds = %64, %63
  call void @llvm.lifetime.end.p0(i64 16, ptr nonnull %5) #7
  %70 = call i32 @H5CX_pop(i1 noundef zeroext true) #7
  br label %72

.thread31:                                        ; preds = %14, %27, %34, %.thread39
  %71 = call i32 @H5E_dump_api_stack() #7
  br label %72

72:                                               ; preds = %69, %.thread35, %.thread31
  %.018 = phi i32 [ -1, %.thread31 ], [ 0, %69 ], [ 0, %.thread35 ]
  call void @llvm.lifetime.end.p0(i64 480, ptr nonnull %4) #7
  ret i32 %.018
}